; Function Attrs: nounwind uwtable
define dso_local noundef ptr @lpNext(ptr noundef captures(address) %0, ptr noundef %1) local_unnamed_addr #3 {
  %3 = alloca ptr, align 8
  %.not = icmp eq ptr %1, null
  br i1 %.not, label %4, label %5, !prof !12

4:                                                ; preds = %2
  tail call void @_serverAssert(ptr noundef nonnull @.str, ptr noundef nonnull @.str.1, i32 noundef 494) #20
  tail call void @abort() #21
  unreachable

5:                                                ; preds = %2
  %6 = load i8, ptr %1, align 1, !tbaa !5
  %7 = zext i8 %6 to i32
  %8 = icmp sgt i8 %6, -1
  br i1 %8, label %lpSkip.exit, label %9

9:                                                ; preds = %5
  %10 = and i32 %7, 192
  %11 = icmp eq i32 %10, 128
  br i1 %11, label %lpCurrentEncodedSizeUnsafe.exit.thread.i, label %14

lpCurrentEncodedSizeUnsafe.exit.thread.i:         ; preds = %9
  %12 = and i32 %7, 63
  %13 = add nuw nsw i32 %12, 1
  br label %lpSkip.exit

14:                                               ; preds = %9
  %15 = and i32 %7, 224
  %16 = icmp eq i32 %15, 192
  br i1 %16, label %lpSkip.exit, label %17

17:                                               ; preds = %14
  %switch.tableidx = add nsw i8 %6, 15
  %18 = icmp ult i8 %switch.tableidx, 4
  br i1 %18, label %switch.lookup, label %19

19:                                               ; preds = %17
  %20 = and i32 %7, 240
  %21 = icmp eq i32 %20, 224
  br i1 %21, label %22, label %30

22:                                               ; preds = %19
  %23 = shl nuw nsw i32 %7, 8
  %24 = and i32 %23, 3840
  %25 = getelementptr inbounds nuw i8, ptr %1, i64 1
  %26 = load i8, ptr %25, align 1, !tbaa !5
  %27 = zext i8 %26 to i32
  %28 = or disjoint i32 %24, 2
  %29 = add nuw nsw i32 %28, %27
  br label %lpCurrentEncodedSizeUnsafe.exit.i

30:                                               ; preds = %19
  switch i8 %6, label %35 [
    i8 -16, label %31
    i8 -1, label %lpSkip.exit
  ]

31:                                               ; preds = %30
  %32 = getelementptr inbounds nuw i8, ptr %1, i64 1
  %33 = load i32, ptr %32, align 1
  %34 = add i32 %33, 5
  br label %lpCurrentEncodedSizeUnsafe.exit.i

35:                                               ; preds = %30
  br label %lpSkip.exit

lpCurrentEncodedSizeUnsafe.exit.i:                ; preds = %31, %22
  %.0.i.i = phi i32 [ %29, %22 ], [ %34, %31 ]
  %36 = icmp ult i32 %.0.i.i, 128
  br i1 %36, label %lpSkip.exit, label %37

37:                                               ; preds = %lpCurrentEncodedSizeUnsafe.exit.i
  %38 = icmp ult i32 %.0.i.i, 16383
  br i1 %38, label %lpSkip.exit, label %39

39:                                               ; preds = %37
  %40 = icmp ult i32 %.0.i.i, 2097151
  br i1 %40, label %lpSkip.exit, label %41

41:                                               ; preds = %39
  %42 = icmp ult i32 %.0.i.i, 268435455
  %..i.i = select i1 %42, i64 4, i64 5
  br label %lpSkip.exit

switch.lookup:                                    ; preds = %17
  %43 = zext nneg i8 %switch.tableidx to i64
  %switch.gep = getelementptr inbounds nuw [4 x i32], ptr @switch.table.lpRandomPairs.5, i64 0, i64 %43
  %switch.load = load i32, ptr %switch.gep, align 4
  br label %lpSkip.exit

lpSkip.exit:                                      ; preds = %switch.lookup, %5, %lpCurrentEncodedSizeUnsafe.exit.thread.i, %14, %30, %35, %lpCurrentEncodedSizeUnsafe.exit.i, %37, %39, %41
  %.shrunk.i = phi i32 [ %.0.i.i, %lpCurrentEncodedSizeUnsafe.exit.i ], [ %.0.i.i, %37 ], [ %.0.i.i, %39 ], [ %.0.i.i, %41 ], [ 1, %30 ], [ 2, %14 ], [ 1, %5 ], [ 0, %35 ], [ %13, %lpCurrentEncodedSizeUnsafe.exit.thread.i ], [ %switch.load, %switch.lookup ]
  %.0.i5.i = phi i64 [ 1, %lpCurrentEncodedSizeUnsafe.exit.i ], [ 2, %37 ], [ 3, %39 ], [ %..i.i, %41 ], [ 1, %30 ], [ 1, %14 ], [ 1, %5 ], [ 1, %35 ], [ 1, %lpCurrentEncodedSizeUnsafe.exit.thread.i ], [ 1, %switch.lookup ]
  %44 = zext i32 %.shrunk.i to i64
  %45 = getelementptr inbounds nuw i8, ptr %1, i64 %.0.i5.i
  %46 = getelementptr inbounds nuw i8, ptr %45, i64 %44
  %47 = load i8, ptr %46, align 1, !tbaa !5
  %48 = icmp eq i8 %47, -1
  br i1 %48, label %54, label %49

49:                                               ; preds = %lpSkip.exit
  %50 = load i32, ptr %0, align 1
  %51 = zext i32 %50 to i64
  call void @llvm.lifetime.start.p0(i64 8, ptr nonnull %3)
  store ptr %46, ptr %3, align 8, !tbaa !13
  %52 = call i32 @lpValidateNext(ptr noundef nonnull %0, ptr noundef nonnull %3, i64 noundef %51)
  %.not.i = icmp eq i32 %52, 0
  br i1 %.not.i, label %53, label %lpAssertValidEntry.exit, !prof !12

53:                                               ; preds = %49
  tail call void @_serverAssert(ptr noundef nonnull @.str.30, ptr noundef nonnull @.str.1, i32 noundef 1664) #20
  tail call void @abort() #21
  unreachable

lpAssertValidEntry.exit:                          ; preds = %49
  call void @llvm.lifetime.end.p0(i64 8, ptr nonnull %3)
  br label %54

54:                                               ; preds = %lpSkip.exit, %lpAssertValidEntry.exit
  %.0 = phi ptr [ %46, %lpAssertValidEntry.exit ], [ null, %lpSkip.exit ]
  ret ptr %.0
}